target datalayout = "e-m:e-p270:32:32-p271:32:32-p272:64:64-i64:64-i128:128-f80:128-n8:16:32:64-S128"
target triple = "x86_64-unknown-linux-gnu"

%"class.std::vector" = type { %"struct.std::_Vector_base" }
%"struct.std::_Vector_base" = type { %"struct.std::_Vector_base<unsigned char, std::allocator<unsigned char>>::_Vector_impl" }
%"struct.std::_Vector_base<unsigned char, std::allocator<unsigned char>>::_Vector_impl" = type { %"struct.std::_Vector_base<unsigned char, std::allocator<unsigned char>>::_Vector_impl_data" }
%"struct.std::_Vector_base<unsigned char, std::allocator<unsigned char>>::_Vector_impl_data" = type { ptr, ptr, ptr }
%"class.grpc_core::GsecKey" = type { %"class.grpc_core::GsecKeyInterface", i8, %"class.std::vector", %"class.std::vector", %"class.std::vector", %"class.std::vector", %"class.std::vector" }
%"class.grpc_core::GsecKeyInterface" = type { ptr }
%"class.absl::lts_20230802::Span.10" = type { ptr, i64 }

; Function Attrs: mustprogress nounwind uwtable
define linkonce_odr noundef ptr @_ZNKSt6vectorIhSaIhEE11_M_data_ptrIhEEPT_S4_(ptr noundef nonnull align 8 dereferenceable(24) %this, ptr noundef %__ptr) #1 comdat align 2 {
entry:
  %this.addr = alloca ptr, align 8
  %__ptr.addr = alloca ptr, align 8
  store ptr %this, ptr %this.addr, align 8
  store ptr %__ptr, ptr %__ptr.addr, align 8
  %0 = load ptr, ptr %__ptr.addr, align 8
  ret ptr %0
}

; Function Attrs: mustprogress nounwind uwtable
define linkonce_odr noundef ptr @_ZNSt6vectorIhSaIhEE4dataEv(ptr noundef nonnull align 8 dereferenceable(24) %this) #1 comdat align 2 {
entry:
  %this.addr = alloca ptr, align 8
  store ptr %this, ptr %this.addr, align 8
  %this1 = load ptr, ptr %this.addr, align 8
  %_M_impl = getelementptr inbounds %"struct.std::_Vector_base", ptr %this1, i32 0, i32 0
  %_M_start = getelementptr inbounds %"struct.std::_Vector_base<unsigned char, std::allocator<unsigned char>>::_Vector_impl_data", ptr %_M_impl, i32 0, i32 0
  %0 = load ptr, ptr %_M_start, align 8
  %call = call noundef ptr @_ZNKSt6vectorIhSaIhEE11_M_data_ptrIhEEPT_S4_(ptr noundef nonnull align 8 dereferenceable(24) %this1, ptr noundef %0) #12
  ret ptr %call
}

; Function Attrs: mustprogress nounwind uwtable
define linkonce_odr void @_ZN4absl12lts_202308024SpanIhEC2EPhm(ptr noundef nonnull align 8 dereferenceable(16) %this, ptr noundef %array, i64 noundef %length) unnamed_addr #1 comdat align 2 {
entry:
  %this.addr = alloca ptr, align 8
  %array.addr = alloca ptr, align 8
  %length.addr = alloca i64, align 8
  store ptr %this, ptr %this.addr, align 8
  store ptr %array, ptr %array.addr, align 8
  store i64 %length, ptr %length.addr, align 8
  %this1 = load ptr, ptr %this.addr, align 8
  %ptr_ = getelementptr inbounds %"class.absl::lts_20230802::Span.10", ptr %this1, i32 0, i32 0
  %0 = load ptr, ptr %array.addr, align 8
  store ptr %0, ptr %ptr_, align 8
  %len_ = getelementptr inbounds %"class.absl::lts_20230802::Span.10", ptr %this1, i32 0, i32 1
  %1 = load i64, ptr %length.addr, align 8
  store i64 %1, ptr %len_, align 8
  ret void
}

; Function Attrs: mustprogress nounwind uwtable
define linkonce_odr noundef ptr @_ZN4absl12lts_2023080213span_internal11GetDataImplISt6vectorIhSaIhEEEEDTcldtfp_4dataEERT_c(ptr noundef nonnull align 8 dereferenceable(24) %c, i8 noundef signext %0) #1 comdat {
entry:
  %c.addr = alloca ptr, align 8
  %.addr = alloca i8, align 1
  store ptr %c, ptr %c.addr, align 8
  store i8 %0, ptr %.addr, align 1
  %1 = load ptr, ptr %c.addr, align 8
  %call = call noundef ptr @_ZNSt6vectorIhSaIhEE4dataEv(ptr noundef nonnull align 8 dereferenceable(24) %1) #12
  ret ptr %call
}

; Function Attrs: mustprogress nounwind uwtable
define linkonce_odr { ptr, i64 } @_ZN4absl12lts_202308028MakeSpanITpTnRiJEhEENS0_4SpanIT0_EEPS4_m(ptr noundef %ptr, i64 noundef %size) #1 comdat {
entry:
  %retval = alloca %"class.absl::lts_20230802::Span.10", align 8
  %ptr.addr = alloca ptr, align 8
  %size.addr = alloca i64, align 8
  store ptr %ptr, ptr %ptr.addr, align 8
  store i64 %size, ptr %size.addr, align 8
  %0 = load ptr, ptr %ptr.addr, align 8
  %1 = load i64, ptr %size.addr, align 8
  call void @_ZN4absl12lts_202308024SpanIhEC2EPhm(ptr noundef nonnull align 8 dereferenceable(16) %retval, ptr noundef %0, i64 noundef %1) #12
  %2 = load { ptr, i64 }, ptr %retval, align 8
  ret { ptr, i64 } %2
}

; Function Attrs: mustprogress nounwind uwtable
define linkonce_odr noundef i64 @_ZNKSt6vectorIhSaIhEE4sizeEv(ptr noundef nonnull align 8 dereferenceable(24) %this) #1 comdat align 2 {
entry:
  %this.addr = alloca ptr, align 8
  store ptr %this, ptr %this.addr, align 8
  %this1 = load ptr, ptr %this.addr, align 8
  %_M_impl = getelementptr inbounds %"struct.std::_Vector_base", ptr %this1, i32 0, i32 0
  %_M_finish = getelementptr inbounds %"struct.std::_Vector_base<unsigned char, std::allocator<unsigned char>>::_Vector_impl_data", ptr %_M_impl, i32 0, i32 1
  %0 = load ptr, ptr %_M_finish, align 8
  %_M_impl2 = getelementptr inbounds %"struct.std::_Vector_base", ptr %this1, i32 0, i32 0
  %_M_start = getelementptr inbounds %"struct.std::_Vector_base<unsigned char, std::allocator<unsigned char>>::_Vector_impl_data", ptr %_M_impl2, i32 0, i32 0
  %1 = load ptr, ptr %_M_start, align 8
  %sub.ptr.lhs.cast = ptrtoint ptr %0 to i64
  %sub.ptr.rhs.cast = ptrtoint ptr %1 to i64
  %sub.ptr.sub = sub i64 %sub.ptr.lhs.cast, %sub.ptr.rhs.cast
  ret i64 %sub.ptr.sub
}

; Function Attrs: mustprogress nounwind uwtable
define linkonce_odr noundef ptr @_ZN4absl12lts_2023080213span_internal7GetDataISt6vectorIhSaIhEEEEDTcl11GetDataImplfp_Li0EEERT_(ptr noundef nonnull align 8 dereferenceable(24) %c) #1 comdat {
entry:
  %c.addr = alloca ptr, align 8
  store ptr %c, ptr %c.addr, align 8
  %0 = load ptr, ptr %c.addr, align 8
  %call = call noundef ptr @_ZN4absl12lts_2023080213span_internal11GetDataImplISt6vectorIhSaIhEEEEDTcldtfp_4dataEERT_c(ptr noundef nonnull align 8 dereferenceable(24) %0, i8 noundef signext 0) #12
  ret ptr %call
}

; Function Attrs: mustprogress nounwind uwtable
define linkonce_odr { ptr, i64 } @_ZN4absl12lts_202308028MakeSpanITpTnRiJESt6vectorIhSaIhEEEEDTclsr4abslE8MakeSpanclsr13span_internalE7GetDatafp_Ecldtfp_4sizeEEERT0_(ptr noundef nonnull align 8 dereferenceable(24) %c) #1 comdat {
entry:
  %retval = alloca %"class.absl::lts_20230802::Span.10", align 8
  %c.addr = alloca ptr, align 8
  store ptr %c, ptr %c.addr, align 8
  %0 = load ptr, ptr %c.addr, align 8
  %call = call noundef ptr @_ZN4absl12lts_2023080213span_internal7GetDataISt6vectorIhSaIhEEEEDTcl11GetDataImplfp_Li0EEERT_(ptr noundef nonnull align 8 dereferenceable(24) %0) #12
  %1 = load ptr, ptr %c.addr, align 8
  %call1 = call noundef i64 @_ZNKSt6vectorIhSaIhEE4sizeEv(ptr noundef nonnull align 8 dereferenceable(24) %1) #12
  %call2 = call { ptr, i64 } @_ZN4absl12lts_202308028MakeSpanITpTnRiJEhEENS0_4SpanIT0_EEPS4_m(ptr noundef %call, i64 noundef %call1) #12
  %2 = getelementptr inbounds { ptr, i64 }, ptr %retval, i32 0, i32 0
  %3 = extractvalue { ptr, i64 } %call2, 0
  store ptr %3, ptr %2, align 8
  %4 = getelementptr inbounds { ptr, i64 }, ptr %retval, i32 0, i32 1
  %5 = extractvalue { ptr, i64 } %call2, 1
  store i64 %5, ptr %4, align 8
  %6 = load { ptr, i64 }, ptr %retval, align 8
  ret { ptr, i64 } %6
}

; Function Attrs: mustprogress nounwind uwtable
define { ptr, i64 } @_ZN9grpc_core7GsecKey11kdf_counterEv(ptr noundef nonnull align 8 dereferenceable(136) %this) unnamed_addr #1 align 2 {
entry:
  %retval = alloca %"class.absl::lts_20230802::Span.10", align 8
  %this.addr = alloca ptr, align 8
  store ptr %this, ptr %this.addr, align 8
  %this1 = load ptr, ptr %this.addr, align 8
  %kdf_counter_ = getelementptr inbounds %"class.grpc_core::GsecKey", ptr %this1, i32 0, i32 6
  %call = call { ptr, i64 } @_ZN4absl12lts_202308028MakeSpanITpTnRiJESt6vectorIhSaIhEEEEDTclsr4abslE8MakeSpanclsr13span_internalE7GetDatafp_Ecldtfp_4sizeEEERT0_(ptr noundef nonnull align 8 dereferenceable(24) %kdf_counter_) #12
  %0 = getelementptr inbounds { ptr, i64 }, ptr %retval, i32 0, i32 0
  %1 = extractvalue { ptr, i64 } %call, 0
  store ptr %1, ptr %0, align 8
  %2 = getelementptr inbounds { ptr, i64 }, ptr %retval, i32 0, i32 1
  %3 = extractvalue { ptr, i64 } %call, 1
  store i64 %3, ptr %2, align 8
  %4 = load { ptr, i64 }, ptr %retval, align 8
  ret { ptr, i64 } %4
}